; Function Attrs: mustprogress nofree norecurse nosync nounwind willreturn memory(readwrite, inaccessiblemem: none) uwtable
define dso_local range(i32 -30, 2) i32 @onig_get_callout_data(ptr noundef readnone captures(none) %0, ptr noundef readonly captures(none) %1, i32 noundef %2, i32 noundef %3, ptr noundef writeonly captures(address_is_null) %4, ptr noundef writeonly captures(address_is_null) %5) local_unnamed_addr #13 {
  %7 = icmp slt i32 %2, 1
  br i1 %7, label %31, label %8

8:                                                ; preds = %6
  %9 = getelementptr inbounds nuw i8, ptr %1, i64 56
  %10 = load ptr, ptr %9, align 8, !tbaa !41
  %11 = zext nneg i32 %2 to i64
  %12 = getelementptr %struct.CalloutData, ptr %10, i64 %11
  %13 = getelementptr i8, ptr %12, i64 -128
  %14 = load i32, ptr %13, align 8, !tbaa !53
  %15 = getelementptr inbounds nuw i8, ptr %1, i64 48
  %16 = load i32, ptr %15, align 8, !tbaa !40
  %.not = icmp eq i32 %14, %16
  br i1 %.not, label %19, label %17

17:                                               ; preds = %8
  tail call void @llvm.memset.p0.i64(ptr noundef nonnull align 8 dereferenceable(128) %13, i8 0, i64 128, i1 false)
  %18 = load i32, ptr %15, align 8, !tbaa !40
  store i32 %18, ptr %13, align 8, !tbaa !53
  br label %19

19:                                               ; preds = %17, %8
  %20 = getelementptr i8, ptr %12, i64 -120
  %21 = sext i32 %3 to i64
  %22 = getelementptr inbounds [5 x %struct.anon], ptr %20, i64 0, i64 %21
  %23 = load i32, ptr %22, align 8, !tbaa !53
  %.not21 = icmp eq ptr %4, null
  br i1 %.not21, label %25, label %24

24:                                               ; preds = %19
  store i32 %23, ptr %4, align 4, !tbaa !24
  br label %25

25:                                               ; preds = %24, %19
  %.not22 = icmp eq ptr %5, null
  br i1 %.not22, label %28, label %26

26:                                               ; preds = %25
  %27 = getelementptr inbounds nuw i8, ptr %22, i64 8
  tail call void @llvm.memcpy.p0.p0.i64(ptr noundef nonnull align 8 dereferenceable(16) %5, ptr noundef nonnull align 8 dereferenceable(16) %27, i64 16, i1 false), !tbaa.struct !55
  br label %28

28:                                               ; preds = %26, %25
  %29 = icmp eq i32 %23, 0
  %30 = zext i1 %29 to i32
  br label %31

31:                                               ; preds = %6, %28
  %.0 = phi i32 [ %30, %28 ], [ -30, %6 ]
  ret i32 %.0
}